; ModuleID = '46/3389.c'
source_filename = "46/3389.c"
target datalayout = "e-m:e-p270:32:32-p271:32:32-p272:64:64-i64:64-f80:128-n8:16:32:64-S128"
target triple = "x86_64-pc-linux-gnu"

@.str = private unnamed_addr constant [6 x i8] c"%d %d\00", align 1
@.str.1 = private unnamed_addr constant [3 x i8] c"%d\00", align 1
@.str.2 = private unnamed_addr constant [4 x i8] c"%d\0A\00", align 1

; Function Attrs: noinline nounwind uwtable
define dso_local i32 @main() #0 {
  %1 = alloca i32, align 4
  %2 = alloca i32, align 4
  %3 = alloca i32, align 4
  %4 = alloca i32, align 4
  %5 = alloca i32, align 4
  %6 = alloca [100 x [100 x i32]], align 16
  %7 = alloca i32, align 4
  store i32 0, i32* %1, align 4
  store i32 -1, i32* %7, align 4
  %8 = call i32 (i8*, ...) @__isoc99_scanf(i8* getelementptr inbounds ([6 x i8], [6 x i8]* @.str, i64 0, i64 0), i32* %2, i32* %3)
  store i32 0, i32* %4, align 4
  br label %9

9:                                                ; preds = %30, %0
  %10 = load i32, i32* %4, align 4
  %11 = load i32, i32* %2, align 4
  %12 = icmp slt i32 %10, %11
  br i1 %12, label %13, label %33

13:                                               ; preds = %9
  store i32 0, i32* %5, align 4
  br label %14

14:                                               ; preds = %26, %13
  %15 = load i32, i32* %5, align 4
  %16 = load i32, i32* %3, align 4
  %17 = icmp slt i32 %15, %16
  br i1 %17, label %18, label %29

18:                                               ; preds = %14
  %19 = load i32, i32* %4, align 4
  %20 = sext i32 %19 to i64
  %21 = getelementptr inbounds [100 x [100 x i32]], [100 x [100 x i32]]* %6, i64 0, i64 %20
  %22 = load i32, i32* %5, align 4
  %23 = sext i32 %22 to i64
  %24 = getelementptr inbounds [100 x i32], [100 x i32]* %21, i64 0, i64 %23
  %25 = call i32 (i8*, ...) @__isoc99_scanf(i8* getelementptr inbounds ([3 x i8], [3 x i8]* @.str.1, i64 0, i64 0), i32* %24)
  br label %26

26:                                               ; preds = %18
  %27 = load i32, i32* %5, align 4
  %28 = add nsw i32 %27, 1
  store i32 %28, i32* %5, align 4
  br label %14

29:                                               ; preds = %14
  br label %30

30:                                               ; preds = %29
  %31 = load i32, i32* %4, align 4
  %32 = add nsw i32 %31, 1
  store i32 %32, i32* %4, align 4
  br label %9

33:                                               ; preds = %9
  store i32 0, i32* %4, align 4
  store i32 0, i32* %5, align 4
  store i32 1, i32* %7, align 4
  br label %34

34:                                               ; preds = %33, %182
  %35 = load i32, i32* %4, align 4
  %36 = sext i32 %35 to i64
  %37 = getelementptr inbounds [100 x [100 x i32]], [100 x [100 x i32]]* %6, i64 0, i64 %36
  %38 = load i32, i32* %5, align 4
  %39 = sext i32 %38 to i64
  %40 = getelementptr inbounds [100 x i32], [100 x i32]* %37, i64 0, i64 %39
  %41 = load i32, i32* %40, align 4
  %42 = icmp ne i32 %41, -10
  br i1 %42, label %43, label %58

43:                                               ; preds = %34
  %44 = load i32, i32* %4, align 4
  %45 = sext i32 %44 to i64
  %46 = getelementptr inbounds [100 x [100 x i32]], [100 x [100 x i32]]* %6, i64 0, i64 %45
  %47 = load i32, i32* %5, align 4
  %48 = sext i32 %47 to i64
  %49 = getelementptr inbounds [100 x i32], [100 x i32]* %46, i64 0, i64 %48
  %50 = load i32, i32* %49, align 4
  %51 = call i32 (i8*, ...) @printf(i8* getelementptr inbounds ([4 x i8], [4 x i8]* @.str.2, i64 0, i64 0), i32 %50)
  %52 = load i32, i32* %4, align 4
  %53 = sext i32 %52 to i64
  %54 = getelementptr inbounds [100 x [100 x i32]], [100 x [100 x i32]]* %6, i64 0, i64 %53
  %55 = load i32, i32* %5, align 4
  %56 = sext i32 %55 to i64
  %57 = getelementptr inbounds [100 x i32], [100 x i32]* %54, i64 0, i64 %56
  store i32 -10, i32* %57, align 4
  br label %59

58:                                               ; preds = %34
  br label %183

59:                                               ; preds = %43
  %60 = load i32, i32* %7, align 4
  %61 = icmp eq i32 %60, 1
  br i1 %61, label %62, label %90

62:                                               ; preds = %59
  %63 = load i32, i32* %5, align 4
  %64 = add nsw i32 %63, 1
  %65 = load i32, i32* %3, align 4
  %66 = icmp slt i32 %64, %65
  br i1 %66, label %67, label %80

67:                                               ; preds = %62
  %68 = load i32, i32* %4, align 4
  %69 = sext i32 %68 to i64
  %70 = getelementptr inbounds [100 x [100 x i32]], [100 x [100 x i32]]* %6, i64 0, i64 %69
  %71 = load i32, i32* %5, align 4
  %72 = add nsw i32 %71, 1
  %73 = sext i32 %72 to i64
  %74 = getelementptr inbounds [100 x i32], [100 x i32]* %70, i64 0, i64 %73
  %75 = load i32, i32* %74, align 4
  %76 = icmp ne i32 %75, -10
  br i1 %76, label %77, label %80

77:                                               ; preds = %67
  %78 = load i32, i32* %5, align 4
  %79 = add nsw i32 %78, 1
  store i32 %79, i32* %5, align 4
  br label %89

80:                                               ; preds = %67, %62
  %81 = load i32, i32* %4, align 4
  %82 = add nsw i32 %81, 1
  %83 = load i32, i32* %2, align 4
  %84 = icmp slt i32 %82, %83
  br i1 %84, label %85, label %88

85:                                               ; preds = %80
  %86 = load i32, i32* %4, align 4
  %87 = add nsw i32 %86, 1
  store i32 %87, i32* %4, align 4
  store i32 2, i32* %7, align 4
  br label %88

88:                                               ; preds = %85, %80
  br label %89

89:                                               ; preds = %88, %77
  br label %182

90:                                               ; preds = %59
  %91 = load i32, i32* %7, align 4
  %92 = icmp eq i32 %91, 2
  br i1 %92, label %93, label %120

93:                                               ; preds = %90
  %94 = load i32, i32* %4, align 4
  %95 = add nsw i32 %94, 1
  %96 = load i32, i32* %2, align 4
  %97 = icmp slt i32 %95, %96
  br i1 %97, label %98, label %111

98:                                               ; preds = %93
  %99 = load i32, i32* %4, align 4
  %100 = add nsw i32 %99, 1
  %101 = sext i32 %100 to i64
  %102 = getelementptr inbounds [100 x [100 x i32]], [100 x [100 x i32]]* %6, i64 0, i64 %101
  %103 = load i32, i32* %5, align 4
  %104 = sext i32 %103 to i64
  %105 = getelementptr inbounds [100 x i32], [100 x i32]* %102, i64 0, i64 %104
  %106 = load i32, i32* %105, align 4
  %107 = icmp ne i32 %106, -10
  br i1 %107, label %108, label %111

108:                                              ; preds = %98
  %109 = load i32, i32* %4, align 4
  %110 = add nsw i32 %109, 1
  store i32 %110, i32* %4, align 4
  br label %119

111:                                              ; preds = %98, %93
  %112 = load i32, i32* %5, align 4
  %113 = sub nsw i32 %112, 1
  %114 = icmp sge i32 %113, 0
  br i1 %114, label %115, label %118

115:                                              ; preds = %111
  %116 = load i32, i32* %5, align 4
  %117 = add nsw i32 %116, -1
  store i32 %117, i32* %5, align 4
  store i32 3, i32* %7, align 4
  br label %118

118:                                              ; preds = %115, %111
  br label %119

119:                                              ; preds = %118, %108
  br label %181

120:                                              ; preds = %90
  %121 = load i32, i32* %7, align 4
  %122 = icmp eq i32 %121, 3
  br i1 %122, label %123, label %149

123:                                              ; preds = %120
  %124 = load i32, i32* %5, align 4
  %125 = sub nsw i32 %124, 1
  %126 = icmp sge i32 %125, 0
  br i1 %126, label %127, label %140

127:                                              ; preds = %123
  %128 = load i32, i32* %4, align 4
  %129 = sext i32 %128 to i64
  %130 = getelementptr inbounds [100 x [100 x i32]], [100 x [100 x i32]]* %6, i64 0, i64 %129
  %131 = load i32, i32* %5, align 4
  %132 = sub nsw i32 %131, 1
  %133 = sext i32 %132 to i64
  %134 = getelementptr inbounds [100 x i32], [100 x i32]* %130, i64 0, i64 %133
  %135 = load i32, i32* %134, align 4
  %136 = icmp ne i32 %135, -10
  br i1 %136, label %137, label %140

137:                                              ; preds = %127
  %138 = load i32, i32* %5, align 4
  %139 = add nsw i32 %138, -1
  store i32 %139, i32* %5, align 4
  br label %148

140:                                              ; preds = %127, %123
  %141 = load i32, i32* %4, align 4
  %142 = sub nsw i32 %141, 1
  %143 = icmp sge i32 %142, 0
  br i1 %143, label %144, label %147

144:                                              ; preds = %140
  %145 = load i32, i32* %4, align 4
  %146 = add nsw i32 %145, -1
  store i32 %146, i32* %4, align 4
  store i32 4, i32* %7, align 4
  br label %147

147:                                              ; preds = %144, %140
  br label %148

148:                                              ; preds = %147, %137
  br label %180

149:                                              ; preds = %120
  %150 = load i32, i32* %7, align 4
  %151 = icmp eq i32 %150, 4
  br i1 %151, label %152, label %179

152:                                              ; preds = %149
  %153 = load i32, i32* %4, align 4
  %154 = sub nsw i32 %153, 1
  %155 = icmp sge i32 %154, 0
  br i1 %155, label %156, label %169

156:                                              ; preds = %152
  %157 = load i32, i32* %4, align 4
  %158 = sub nsw i32 %157, 1
  %159 = sext i32 %158 to i64
  %160 = getelementptr inbounds [100 x [100 x i32]], [100 x [100 x i32]]* %6, i64 0, i64 %159
  %161 = load i32, i32* %5, align 4
  %162 = sext i32 %161 to i64
  %163 = getelementptr inbounds [100 x i32], [100 x i32]* %160, i64 0, i64 %162
  %164 = load i32, i32* %163, align 4
  %165 = icmp ne i32 %164, -10
  br i1 %165, label %166, label %169

166:                                              ; preds = %156
  %167 = load i32, i32* %4, align 4
  %168 = add nsw i32 %167, -1
  store i32 %168, i32* %4, align 4
  br label %178

169:                                              ; preds = %156, %152
  %170 = load i32, i32* %5, align 4
  %171 = add nsw i32 %170, 1
  %172 = load i32, i32* %3, align 4
  %173 = icmp slt i32 %171, %172
  br i1 %173, label %174, label %177

174:                                              ; preds = %169
  %175 = load i32, i32* %5, align 4
  %176 = add nsw i32 %175, 1
  store i32 %176, i32* %5, align 4
  store i32 1, i32* %7, align 4
  br label %177

177:                                              ; preds = %174, %169
  br label %178

178:                                              ; preds = %177, %166
  br label %179

179:                                              ; preds = %178, %149
  br label %180

180:                                              ; preds = %179, %148
  br label %181

181:                                              ; preds = %180, %119
  br label %182

182:                                              ; preds = %181, %89
  br label %34

183:                                              ; preds = %58
  ret i32 0
}

declare dso_local i32 @__isoc99_scanf(i8*, ...) #1

declare dso_local i32 @printf(i8*, ...) #1


!llvm.module.flags = !{!0}
!llvm.ident = !{!1}

!0 = !{i32 1, !"wchar_size", i32 4}
!1 = !{!"clang version 10.0.0-4ubuntu1 "}
